; Function Attrs: nofree norecurse nosync nounwind memory(argmem: readwrite) uwtable
define dso_local void @i128_udivrem(i64 %0, i64 %1, i64 %2, i64 %3, ptr noundef writeonly captures(none) initializes((0, 16)) %4, ptr noundef writeonly captures(none) %5) local_unnamed_addr #13 {
  %7 = alloca %struct.Int128_, align 8
  %8 = alloca %struct.Int128_, align 8
  store i64 %0, ptr %7, align 8
  %9 = getelementptr inbounds nuw i8, ptr %7, i64 8
  store i64 %1, ptr %9, align 8
  store i64 %2, ptr %8, align 8
  %10 = getelementptr inbounds nuw i8, ptr %8, i64 8
  store i64 %3, ptr %10, align 8
  %.sroa.210.0..sroa_idx = getelementptr inbounds nuw i8, ptr %4, i64 8
  tail call void @llvm.memset.p0.i64(ptr noundef nonnull align 8 dereferenceable(16) %4, i8 0, i64 16, i1 false)
  %11 = call i32 @i128_clz(ptr noundef nonnull %8)
  %12 = call i32 @i128_clz(ptr noundef nonnull %7)
  %13 = sub nsw i32 %11, %12
  %14 = icmp slt i32 %13, 0
  br i1 %14, label %15, label %16

15:                                               ; preds = %6
  call void @llvm.memcpy.p0.p0.i64(ptr noundef nonnull align 8 dereferenceable(16) %5, ptr noundef nonnull align 8 dereferenceable(16) %7, i64 16, i1 false)
  br label %58

16:                                               ; preds = %6
  %17 = zext nneg i32 %13 to i64
  %18 = icmp eq i32 %13, 0
  br i1 %18, label %i128_shl64.exit.preheader, label %19

19:                                               ; preds = %16
  %20 = icmp samesign ugt i32 %13, 127
  br i1 %20, label %i128_shl64.exit.preheader, label %21

21:                                               ; preds = %19
  %22 = icmp eq i32 %13, 64
  br i1 %22, label %i128_shl64.exit.preheader, label %23

23:                                               ; preds = %21
  %24 = icmp samesign ugt i32 %13, 64
  br i1 %24, label %25, label %28

25:                                               ; preds = %23
  %26 = add nsw i64 %17, -64
  %27 = shl i64 %3, %26
  br label %i128_shl64.exit.preheader

28:                                               ; preds = %23
  %29 = shl i64 %2, %17
  %30 = sub nuw nsw i64 64, %17
  %31 = lshr i64 %3, %30
  %32 = or disjoint i64 %31, %29
  %33 = shl i64 %3, %17
  br label %i128_shl64.exit.preheader

i128_shl64.exit.preheader:                        ; preds = %16, %19, %21, %25, %28
  %.ph = phi i64 [ %33, %28 ], [ 0, %25 ], [ 0, %21 ], [ 0, %19 ], [ %3, %16 ]
  %.ph48 = phi i64 [ %32, %28 ], [ %27, %25 ], [ %3, %21 ], [ 0, %19 ], [ %2, %16 ]
  br label %i128_shl64.exit

i128_shl64.exit:                                  ; preds = %i128_shl64.exit.preheader, %i128_ucomp.exit
  %34 = phi i64 [ %50, %i128_ucomp.exit ], [ %1, %i128_shl64.exit.preheader ]
  %35 = phi i64 [ %51, %i128_ucomp.exit ], [ %0, %i128_shl64.exit.preheader ]
  %36 = phi i64 [ %52, %i128_ucomp.exit ], [ 0, %i128_shl64.exit.preheader ]
  %37 = phi i64 [ %40, %i128_ucomp.exit ], [ 0, %i128_shl64.exit.preheader ]
  %38 = phi i64 [ %53, %i128_ucomp.exit ], [ %.ph, %i128_shl64.exit.preheader ]
  %39 = phi i64 [ %54, %i128_ucomp.exit ], [ %.ph48, %i128_shl64.exit.preheader ]
  %.0 = phi i32 [ %55, %i128_ucomp.exit ], [ %13, %i128_shl64.exit.preheader ]
  %40 = tail call i64 @llvm.fshl.i64(i64 %37, i64 %36, i64 1)
  %41 = shl i64 %36, 1
  %42 = icmp ugt i64 %35, %39
  br i1 %42, label %select.unfold, label %43

43:                                               ; preds = %i128_shl64.exit
  %44 = icmp ult i64 %35, %39
  %or.cond.not = icmp ult i64 %34, %38
  %or.cond = select i1 %44, i1 true, i1 %or.cond.not
  br i1 %or.cond, label %i128_ucomp.exit, label %select.unfold

select.unfold:                                    ; preds = %43, %i128_shl64.exit
  %45 = sub i64 %35, %39
  %46 = icmp ugt i64 %38, %34
  %47 = sext i1 %46 to i64
  %spec.select.i = add i64 %45, %47
  %48 = sub i64 %34, %38
  %49 = or disjoint i64 %41, 1
  br label %i128_ucomp.exit

i128_ucomp.exit:                                  ; preds = %43, %select.unfold
  %50 = phi i64 [ %34, %43 ], [ %48, %select.unfold ]
  %51 = phi i64 [ %35, %43 ], [ %spec.select.i, %select.unfold ]
  %52 = phi i64 [ %41, %43 ], [ %49, %select.unfold ]
  %53 = tail call i64 @llvm.fshl.i64(i64 %39, i64 %38, i64 63)
  %54 = lshr i64 %39, 1
  %55 = add nsw i32 %.0, -1
  %.not18 = icmp eq i32 %.0, 0
  br i1 %.not18, label %56, label %i128_shl64.exit, !llvm.loop !7

56:                                               ; preds = %i128_ucomp.exit
  store i64 %40, ptr %4, align 8
  store i64 %52, ptr %.sroa.210.0..sroa_idx, align 8
  store i64 %51, ptr %5, align 8
  %57 = getelementptr inbounds nuw i8, ptr %5, i64 8
  store i64 %50, ptr %57, align 8
  br label %58

58:                                               ; preds = %56, %15
  ret void
}